; Function Attrs: mustprogress nofree norecurse nosync nounwind willreturn memory(argmem: readwrite) uwtable
define void @sp_clear(ptr noundef captures(address_is_null) %0) local_unnamed_addr #3 {
  %.not = icmp eq ptr %0, null
  br i1 %.not, label %7, label %.preheader

.preheader:                                       ; preds = %1
  %2 = load i16, ptr %0, align 8, !tbaa !12
  %.not9 = icmp eq i16 %2, 0
  br i1 %.not9, label %._crit_edge, label %.lr.ph

.lr.ph:                                           ; preds = %.preheader
  %3 = getelementptr inbounds nuw i8, ptr %0, i64 8
  %4 = zext i16 %2 to i64
  %5 = shl nuw nsw i64 %4, 3
  tail call void @llvm.memset.p0.i64(ptr nonnull align 8 %3, i8 0, i64 %5, i1 false), !tbaa !8
  br label %._crit_edge

._crit_edge:                                      ; preds = %.lr.ph, %.preheader
  store i16 0, ptr %0, align 8, !tbaa !3
  %6 = getelementptr inbounds nuw i8, ptr %0, i64 8
  store i64 0, ptr %6, align 8, !tbaa !8
  br label %7

7:                                                ; preds = %._crit_edge, %1
  ret void
}